target datalayout = "e-m:e-p270:32:32-p271:32:32-p272:64:64-i64:64-i128:128-f80:128-n8:16:32:64-S128"
target triple = "x86_64-pc-linux-gnu"

%struct.strvec = type { ptr, i64, i64 }
%struct.credential_capability = type { i8, [3 x i8] }
%struct.credential = type { %struct.string_list, %struct.strvec, %struct.strvec, %struct.strvec, i16, [2 x i8], %struct.credential_capability, %struct.credential_capability, ptr, ptr, ptr, ptr, ptr, ptr, ptr, i64, ptr }
%struct.string_list = type { ptr, i64, i64, i8, ptr }

@.str = private unnamed_addr constant [11 x i8] c"version 0\0A\00", align 1
@.str.1 = private unnamed_addr constant [9 x i8] c"authtype\00", align 1
@.str.2 = private unnamed_addr constant [6 x i8] c"state\00", align 1
@.str.27 = private unnamed_addr constant [15 x i8] c"capability %s\0A\00", align 1

; Function Attrs: nounwind uwtable
define internal void @announce_one(ptr noundef %0, ptr noundef %1, ptr noundef %2) #0 {
  %4 = alloca ptr, align 8
  %5 = alloca ptr, align 8
  %6 = alloca ptr, align 8
  store ptr %0, ptr %4, align 8, !tbaa !28
  store ptr %1, ptr %5, align 8, !tbaa !32
  store ptr %2, ptr %6, align 8, !tbaa !30
  %7 = load ptr, ptr %4, align 8, !tbaa !28
  %8 = load i8, ptr %7, align 4
  %9 = and i8 %8, 1
  %10 = zext i8 %9 to i32
  %11 = icmp ne i32 %10, 0
  br i1 %11, label %12, label %16

12:                                               ; preds = %3
  %13 = load ptr, ptr %6, align 8, !tbaa !30
  %14 = load ptr, ptr %5, align 8, !tbaa !32
  %15 = call i32 (ptr, ptr, ...) @fprintf(ptr noundef %13, ptr noundef @.str.27, ptr noundef %14) #10
  br label %16

16:                                               ; preds = %12, %3
  ret void
}

; Function Attrs: nounwind uwtable
define dso_local void @credential_announce_capabilities(ptr noundef %0, ptr noundef %1) #0 {
  %3 = alloca ptr, align 8
  %4 = alloca ptr, align 8
  store ptr %0, ptr %3, align 8, !tbaa !4
  store ptr %1, ptr %4, align 8, !tbaa !30
  %5 = load ptr, ptr %4, align 8, !tbaa !30
  %6 = call i32 (ptr, ptr, ...) @fprintf(ptr noundef %5, ptr noundef @.str) #10
  %7 = load ptr, ptr %3, align 8, !tbaa !4
  %8 = getelementptr inbounds nuw %struct.credential, ptr %7, i32 0, i32 6
  %9 = load ptr, ptr %4, align 8, !tbaa !30
  call void @announce_one(ptr noundef %8, ptr noundef @.str.1, ptr noundef %9)
  %10 = load ptr, ptr %3, align 8, !tbaa !4
  %11 = getelementptr inbounds nuw %struct.credential, ptr %10, i32 0, i32 7
  %12 = load ptr, ptr %4, align 8, !tbaa !30
  call void @announce_one(ptr noundef %11, ptr noundef @.str.2, ptr noundef %12)
  ret void
}