; Function Attrs: nofree nounwind uwtable
define dso_local void @credential_announce_capabilities(ptr noundef readonly captures(none) %0, ptr noundef captures(none) %1) local_unnamed_addr #7 {
  %3 = tail call i64 @fwrite(ptr nonnull @.str, i64 10, i64 1, ptr %1)
  %4 = getelementptr inbounds nuw i8, ptr %0, i64 116
  %.val = load i8, ptr %4, align 4
  %5 = and i8 %.val, 1
  %.not.i = icmp eq i8 %5, 0
  br i1 %.not.i, label %announce_one.exit, label %6

6:                                                ; preds = %2
  %7 = tail call i32 (ptr, ptr, ...) @fprintf(ptr noundef %1, ptr noundef nonnull @.str.27, ptr noundef nonnull @.str.1) #19
  br label %announce_one.exit

announce_one.exit:                                ; preds = %2, %6
  %8 = getelementptr inbounds nuw i8, ptr %0, i64 120
  %.val5 = load i8, ptr %8, align 4
  %9 = and i8 %.val5, 1
  %.not.i6 = icmp eq i8 %9, 0
  br i1 %.not.i6, label %announce_one.exit7, label %10

10:                                               ; preds = %announce_one.exit
  %11 = tail call i32 (ptr, ptr, ...) @fprintf(ptr noundef %1, ptr noundef nonnull @.str.27, ptr noundef nonnull @.str.2) #19
  br label %announce_one.exit7

announce_one.exit7:                               ; preds = %announce_one.exit, %10
  ret void
}